target datalayout = "e-m:e-p270:32:32-p271:32:32-p272:64:64-i64:64-i128:128-f80:128-n8:16:32:64-S128"
target triple = "x86_64-pc-linux-gnu"

%"class.boost::system::error_code" = type { %union.anon.6, i64 }
%union.anon.6 = type { %"struct.boost::system::error_code::data" }
%"struct.boost::system::error_code::data" = type { i32, ptr }
%"class.boost::json::storage_ptr" = type { i64 }
%"class.boost::container::pmr::memory_resource" = type { ptr }
%"class.boost::json::parser" = type { %"class.boost::json::basic_parser" }
%"class.boost::json::basic_parser" = type <{ %"struct.boost::json::detail::handler", %"struct.boost::json::basic_parser<boost::json::detail::handler>::number", %"class.boost::system::error_code", %"class.boost::json::detail::stack", %"class.boost::json::detail::utf8_sequence", i32, i32, i8, i8, i8, [5 x i8], ptr, %"class.boost::json::detail::sbo_buffer", %"struct.boost::json::parse_options", i64, i8, i8, [6 x i8] }>
%"struct.boost::json::detail::handler" = type { %"class.boost::json::value_stack" }
%"class.boost::json::value_stack" = type { %"class.boost::json::value_stack::stack", %"class.boost::json::storage_ptr" }
%"class.boost::json::value_stack::stack" = type <{ %"class.boost::json::storage_ptr", ptr, ptr, ptr, ptr, i64, i8, [7 x i8] }>
%"struct.boost::json::basic_parser<boost::json::detail::handler>::number" = type { i64, i32, i32, i8, i8 }
%"class.boost::json::detail::stack" = type { %"class.boost::json::storage_ptr", i64, i64, ptr, ptr, ptr }
%"class.boost::json::detail::utf8_sequence" = type <{ [4 x i8], i16, i8, i8 }>
%"class.boost::json::detail::sbo_buffer" = type { %union.anon.36, ptr, i64 }
%union.anon.36 = type { i64, [32 x i8] }
%"struct.boost::json::parse_options" = type <{ i64, i8, i8, i8, i8, i8, i8, [2 x i8] }>
%"struct.boost::json::detail::shared_resource" = type { %"class.boost::container::pmr::memory_resource", %"struct.std::atomic.304" }
%"struct.std::atomic.304" = type { %"struct.std::__atomic_base.305" }
%"struct.std::__atomic_base.305" = type { i64 }
%"struct.std::array" = type { [34 x i8] }

@_ZN5boost4json11value_stackD1Ev = unnamed_addr alias void (ptr), ptr @_ZN5boost4json11value_stackD2Ev
@_ZN5boost4json11value_stackC1ENS0_11storage_ptrEPhm = unnamed_addr alias void (ptr, ptr, ptr, i64), ptr @_ZN5boost4json11value_stackC2ENS0_11storage_ptrEPhm
@_ZN5boost4json6detail5stackD1Ev = unnamed_addr alias void (ptr), ptr @_ZN5boost4json6detail5stackD2Ev

; Function Attrs: mustprogress nounwind uwtable
define linkonce_odr hidden noundef ptr @_ZNSt14__array_traitsIcLm34EE6_S_ptrERA34_Kc(ptr noundef nonnull align 1 dereferenceable(34) %0) #2 comdat align 2 {
  %2 = alloca ptr, align 8
  store ptr %0, ptr %2, align 8, !tbaa !3
  %3 = load ptr, ptr %2, align 8, !tbaa !3
  %4 = getelementptr inbounds [34 x i8], ptr %3, i64 0, i64 0
  ret ptr %4
}

; Function Attrs: mustprogress nounwind uwtable
define linkonce_odr hidden noundef i64 @_ZN5boost4json6detail8exchangeImiEET_RS3_T0_(ptr noundef nonnull align 8 dereferenceable(8) %0, i32 noundef %1) #2 comdat {
  %3 = alloca ptr, align 8
  %4 = alloca i32, align 4
  %5 = alloca i64, align 8
  store ptr %0, ptr %3, align 8, !tbaa !3
  store i32 %1, ptr %4, align 4, !tbaa !7
  call void @llvm.lifetime.start.p0(i64 8, ptr %5) #10
  %6 = load ptr, ptr %3, align 8, !tbaa !3
  %7 = load i64, ptr %6, align 8, !tbaa !16
  store i64 %7, ptr %5, align 8, !tbaa !16
  %8 = load i32, ptr %4, align 4, !tbaa !7
  %9 = sext i32 %8 to i64
  %10 = load ptr, ptr %3, align 8, !tbaa !3
  store i64 %9, ptr %10, align 8, !tbaa !16
  %11 = load i64, ptr %5, align 8, !tbaa !16
  call void @llvm.lifetime.end.p0(i64 8, ptr %5) #10
  ret i64 %11
}

; Function Attrs: alwaysinline mustprogress nounwind uwtable
define linkonce_odr hidden noundef i64 @_ZNSt13__atomic_baseImE9fetch_subEmSt12memory_order(ptr noundef nonnull align 8 dereferenceable(8) %0, i64 noundef %1, i32 noundef %2) #19 comdat align 2 {
  %4 = alloca ptr, align 8
  %5 = alloca i64, align 8
  %6 = alloca i32, align 4
  %7 = alloca i64, align 8
  %8 = alloca i64, align 8
  store ptr %0, ptr %4, align 8, !tbaa !3
  store i64 %1, ptr %5, align 8, !tbaa !16
  store i32 %2, ptr %6, align 4, !tbaa !288
  %9 = load ptr, ptr %4, align 8
  %10 = getelementptr inbounds nuw %"struct.std::__atomic_base.305", ptr %9, i32 0, i32 0
  %11 = load i32, ptr %6, align 4, !tbaa !288
  %12 = load i64, ptr %5, align 8, !tbaa !16
  store i64 %12, ptr %7, align 8, !tbaa !16
  switch i32 %11, label %13 [
    i32 1, label %16
    i32 2, label %16
    i32 3, label %19
    i32 4, label %22
    i32 5, label %25
  ]

13:                                               ; preds = %3
  %14 = load i64, ptr %7, align 8
  %15 = atomicrmw sub ptr %10, i64 %14 monotonic, align 8
  store i64 %15, ptr %8, align 8
  br label %28

16:                                               ; preds = %3, %3
  %17 = load i64, ptr %7, align 8
  %18 = atomicrmw sub ptr %10, i64 %17 acquire, align 8
  store i64 %18, ptr %8, align 8
  br label %28

19:                                               ; preds = %3
  %20 = load i64, ptr %7, align 8
  %21 = atomicrmw sub ptr %10, i64 %20 release, align 8
  store i64 %21, ptr %8, align 8
  br label %28

22:                                               ; preds = %3
  %23 = load i64, ptr %7, align 8
  %24 = atomicrmw sub ptr %10, i64 %23 acq_rel, align 8
  store i64 %24, ptr %8, align 8
  br label %28

25:                                               ; preds = %3
  %26 = load i64, ptr %7, align 8
  %27 = atomicrmw sub ptr %10, i64 %26 seq_cst, align 8
  store i64 %27, ptr %8, align 8
  br label %28

28:                                               ; preds = %25, %22, %19, %16, %13
  %29 = load i64, ptr %8, align 8, !tbaa !16
  ret i64 %29
}

; Function Attrs: mustprogress nounwind uwtable
define linkonce_odr hidden noundef ptr @_ZNK5boost4json11storage_ptr10get_sharedEv(ptr noundef nonnull align 8 dereferenceable(8) %0) #2 comdat align 2 {
  %2 = alloca ptr, align 8
  store ptr %0, ptr %2, align 8, !tbaa !3
  %3 = load ptr, ptr %2, align 8
  %4 = getelementptr inbounds nuw %"class.boost::json::storage_ptr", ptr %3, i32 0, i32 0
  %5 = load i64, ptr %4, align 8, !tbaa !35
  %6 = and i64 %5, -4
  %7 = inttoptr i64 %6 to ptr
  ret ptr %7
}

; Function Attrs: mustprogress nounwind uwtable
define linkonce_odr hidden noundef zeroext i1 @_ZNK5boost4json11storage_ptr9is_sharedEv(ptr noundef nonnull align 8 dereferenceable(8) %0) #2 comdat align 2 {
  %2 = alloca ptr, align 8
  store ptr %0, ptr %2, align 8, !tbaa !3
  %3 = load ptr, ptr %2, align 8
  %4 = getelementptr inbounds nuw %"class.boost::json::storage_ptr", ptr %3, i32 0, i32 0
  %5 = load i64, ptr %4, align 8, !tbaa !35
  %6 = and i64 %5, 1
  %7 = icmp ne i64 %6, 0
  ret i1 %7
}

; Function Attrs: mustprogress nounwind willreturn memory(none) uwtable
define linkonce_odr hidden noundef ptr @_ZNSt5arrayIcLm34EE4dataEv(ptr noundef nonnull align 1 dereferenceable(34) %0) #26 comdat align 2 {
  %2 = alloca ptr, align 8
  store ptr %0, ptr %2, align 8, !tbaa !3
  %3 = load ptr, ptr %2, align 8
  %4 = getelementptr inbounds nuw %"struct.std::array", ptr %3, i32 0, i32 0
  %5 = call noundef ptr @_ZNSt14__array_traitsIcLm34EE6_S_ptrERA34_Kc(ptr noundef nonnull align 1 dereferenceable(34) %4) #10
  ret ptr %5
}

; Function Attrs: mustprogress nounwind uwtable
define linkonce_odr hidden void @_ZN5boost4json11storage_ptrC2EOS1_(ptr noundef nonnull align 8 dereferenceable(8) %0, ptr noundef nonnull align 8 dereferenceable(8) %1) unnamed_addr #2 comdat align 2 {
  %3 = alloca ptr, align 8
  %4 = alloca ptr, align 8
  store ptr %0, ptr %3, align 8, !tbaa !3
  store ptr %1, ptr %4, align 8, !tbaa !3
  %5 = load ptr, ptr %3, align 8
  %6 = getelementptr inbounds nuw %"class.boost::json::storage_ptr", ptr %5, i32 0, i32 0
  %7 = load ptr, ptr %4, align 8, !tbaa !3
  %8 = getelementptr inbounds nuw %"class.boost::json::storage_ptr", ptr %7, i32 0, i32 0
  %9 = call noundef i64 @_ZN5boost4json6detail8exchangeImiEET_RS3_T0_(ptr noundef nonnull align 8 dereferenceable(8) %8, i32 noundef 0) #10
  store i64 %9, ptr %6, align 8, !tbaa !35
  ret void
}

; Function Attrs: mustprogress nounwind uwtable
define linkonce_odr hidden void @_ZNK5boost4json11storage_ptr7releaseEv(ptr noundef nonnull align 8 dereferenceable(8) %0) #2 comdat align 2 {
  %2 = alloca ptr, align 8
  %3 = alloca ptr, align 8
  store ptr %0, ptr %2, align 8, !tbaa !3
  %4 = load ptr, ptr %2, align 8
  %5 = call noundef zeroext i1 @_ZNK5boost4json11storage_ptr9is_sharedEv(ptr noundef nonnull align 8 dereferenceable(8) %4) #10
  br i1 %5, label %6, label %21

6:                                                ; preds = %1
  call void @llvm.lifetime.start.p0(i64 8, ptr %3) #10
  %7 = call noundef ptr @_ZNK5boost4json11storage_ptr10get_sharedEv(ptr noundef nonnull align 8 dereferenceable(8) %4) #10
  store ptr %7, ptr %3, align 8, !tbaa !3
  %8 = load ptr, ptr %3, align 8, !tbaa !3
  %9 = getelementptr inbounds nuw %"struct.boost::json::detail::shared_resource", ptr %8, i32 0, i32 1
  %10 = call noundef i64 @_ZNSt13__atomic_baseImE9fetch_subEmSt12memory_order(ptr noundef nonnull align 8 dereferenceable(8) %9, i64 noundef 1, i32 noundef 4) #10
  %11 = icmp eq i64 %10, 1
  br i1 %11, label %12, label %20

12:                                               ; preds = %6
  %13 = load ptr, ptr %3, align 8, !tbaa !3
  %14 = icmp eq ptr %13, null
  br i1 %14, label %19, label %15

15:                                               ; preds = %12
  %16 = load ptr, ptr %13, align 8, !tbaa !14
  %17 = getelementptr inbounds ptr, ptr %16, i64 1
  %18 = load ptr, ptr %17, align 8
  call void %18(ptr noundef nonnull align 8 dereferenceable(16) %13) #10
  br label %19

19:                                               ; preds = %15, %12
  br label %20

20:                                               ; preds = %19, %6
  call void @llvm.lifetime.end.p0(i64 8, ptr %3) #10
  br label %21

21:                                               ; preds = %20, %1
  ret void
}

; Function Attrs: inlinehint mustprogress nounwind uwtable
define linkonce_odr hidden void @_ZN5boost4json6detail7handlerD2Ev(ptr noundef nonnull align 8 dereferenceable(64) %0) unnamed_addr #1 comdat align 2 {
  %2 = alloca ptr, align 8
  store ptr %0, ptr %2, align 8, !tbaa !3
  %3 = load ptr, ptr %2, align 8
  %4 = getelementptr inbounds nuw %"struct.boost::json::detail::handler", ptr %3, i32 0, i32 0
  call void @_ZN5boost4json11value_stackD1Ev(ptr noundef nonnull align 8 dereferenceable(64) %4) #10
  ret void
}

; Function Attrs: mustprogress nounwind uwtable
define linkonce_odr hidden void @_ZN5boost4json6detail10sbo_bufferILm34EEC2Ev(ptr noundef nonnull align 8 dereferenceable(56) %0) unnamed_addr #2 comdat align 2 {
  %2 = alloca ptr, align 8
  store ptr %0, ptr %2, align 8, !tbaa !3
  %3 = load ptr, ptr %2, align 8
  %4 = getelementptr inbounds nuw %"class.boost::json::detail::sbo_buffer", ptr %3, i32 0, i32 0
  call void @llvm.memset.p0.i64(ptr align 8 %4, i8 0, i64 34, i1 false)
  %5 = getelementptr inbounds nuw %"class.boost::json::detail::sbo_buffer", ptr %3, i32 0, i32 1
  %6 = getelementptr inbounds nuw %"class.boost::json::detail::sbo_buffer", ptr %3, i32 0, i32 0
  %7 = call noundef ptr @_ZNSt5arrayIcLm34EE4dataEv(ptr noundef nonnull align 1 dereferenceable(34) %6) #38
  store ptr %7, ptr %5, align 8, !tbaa !308
  %8 = getelementptr inbounds nuw %"class.boost::json::detail::sbo_buffer", ptr %3, i32 0, i32 2
  store i64 0, ptr %8, align 8, !tbaa !401
  ret void
}

; Function Attrs: mustprogress nounwind uwtable
define linkonce_odr hidden void @_ZN5boost4json6detail5stackC2Ev(ptr noundef nonnull align 8 dereferenceable(48) %0) unnamed_addr #2 comdat align 2 {
  %2 = alloca ptr, align 8
  store ptr %0, ptr %2, align 8, !tbaa !3
  %3 = load ptr, ptr %2, align 8
  %4 = getelementptr inbounds nuw %"class.boost::json::detail::stack", ptr %3, i32 0, i32 0
  call void @_ZN5boost4json11storage_ptrC2Ev(ptr noundef nonnull align 8 dereferenceable(8) %4) #10
  %5 = getelementptr inbounds nuw %"class.boost::json::detail::stack", ptr %3, i32 0, i32 1
  store i64 0, ptr %5, align 8, !tbaa !274
  %6 = getelementptr inbounds nuw %"class.boost::json::detail::stack", ptr %3, i32 0, i32 2
  store i64 0, ptr %6, align 8, !tbaa !224
  %7 = getelementptr inbounds nuw %"class.boost::json::detail::stack", ptr %3, i32 0, i32 3
  store ptr null, ptr %7, align 8, !tbaa !222
  %8 = getelementptr inbounds nuw %"class.boost::json::detail::stack", ptr %3, i32 0, i32 4
  store ptr null, ptr %8, align 8, !tbaa !272
  %9 = getelementptr inbounds nuw %"class.boost::json::detail::stack", ptr %3, i32 0, i32 5
  store ptr null, ptr %9, align 8, !tbaa !273
  ret void
}

; Function Attrs: mustprogress nounwind uwtable
define linkonce_odr hidden void @_ZN5boost6system10error_codeC2Ev(ptr noundef nonnull align 8 dereferenceable(24) %0) unnamed_addr #2 comdat align 2 {
  %2 = alloca ptr, align 8
  store ptr %0, ptr %2, align 8, !tbaa !3
  %3 = load ptr, ptr %2, align 8
  %4 = getelementptr inbounds nuw %"class.boost::system::error_code", ptr %3, i32 0, i32 0
  call void @llvm.memset.p0.i64(ptr align 8 %4, i8 0, i64 16, i1 false)
  %5 = getelementptr inbounds nuw %"class.boost::system::error_code", ptr %3, i32 0, i32 1
  store i64 0, ptr %5, align 8, !tbaa !53
  ret void
}

; Function Attrs: mustprogress nounwind uwtable
define linkonce_odr hidden void @_ZN5boost4json6detail7handlerC2IJNS0_11storage_ptrERPhRmEEEDpOT_(ptr noundef nonnull align 8 dereferenceable(64) %0, ptr noundef nonnull align 8 dereferenceable(8) %1, ptr noundef nonnull align 8 dereferenceable(8) %2, ptr noundef nonnull align 8 dereferenceable(8) %3) unnamed_addr #2 comdat align 2 {
  %5 = alloca ptr, align 8
  %6 = alloca ptr, align 8
  %7 = alloca ptr, align 8
  %8 = alloca ptr, align 8
  %9 = alloca %"class.boost::json::storage_ptr", align 8
  store ptr %0, ptr %5, align 8, !tbaa !3
  store ptr %1, ptr %6, align 8, !tbaa !3
  store ptr %2, ptr %7, align 8, !tbaa !3
  store ptr %3, ptr %8, align 8, !tbaa !3
  %10 = load ptr, ptr %5, align 8
  %11 = getelementptr inbounds nuw %"struct.boost::json::detail::handler", ptr %10, i32 0, i32 0
  %12 = load ptr, ptr %6, align 8, !tbaa !3
  call void @_ZN5boost4json11storage_ptrC2EOS1_(ptr noundef nonnull align 8 dereferenceable(8) %9, ptr noundef nonnull align 8 dereferenceable(8) %12) #10
  %13 = load ptr, ptr %7, align 8, !tbaa !3
  %14 = load ptr, ptr %13, align 8, !tbaa !3
  %15 = load ptr, ptr %8, align 8, !tbaa !3
  %16 = load i64, ptr %15, align 8, !tbaa !16
  call void @_ZN5boost4json11value_stackC1ENS0_11storage_ptrEPhm(ptr noundef nonnull align 8 dereferenceable(64) %11, ptr noundef %9, ptr noundef %14, i64 noundef %16) #10
  call void @_ZN5boost4json11storage_ptrD2Ev(ptr noundef nonnull align 8 dereferenceable(8) %9) #10
  ret void
}

; Function Attrs: noinline noreturn nounwind uwtable
define linkonce_odr hidden void @__clang_call_terminate(ptr noundef %0) #3 comdat {
  %2 = call ptr @__cxa_begin_catch(ptr %0) #10
  call void @_ZSt9terminatev() #34
  unreachable
}

; Function Attrs: mustprogress nounwind uwtable
define linkonce_odr hidden void @_ZN5boost4json11storage_ptrD2Ev(ptr noundef nonnull align 8 dereferenceable(8) %0) unnamed_addr #2 comdat align 2 {
  %2 = alloca ptr, align 8
  store ptr %0, ptr %2, align 8, !tbaa !3
  %3 = load ptr, ptr %2, align 8
  call void @_ZNK5boost4json11storage_ptr7releaseEv(ptr noundef nonnull align 8 dereferenceable(8) %3) #10
  ret void
}

; Function Attrs: mustprogress nounwind uwtable
define linkonce_odr hidden void @_ZN5boost4json11storage_ptrC2Ev(ptr noundef nonnull align 8 dereferenceable(8) %0) unnamed_addr #2 comdat align 2 {
  %2 = alloca ptr, align 8
  store ptr %0, ptr %2, align 8, !tbaa !3
  %3 = load ptr, ptr %2, align 8
  %4 = getelementptr inbounds nuw %"class.boost::json::storage_ptr", ptr %3, i32 0, i32 0
  store i64 0, ptr %4, align 8, !tbaa !35
  ret void
}

; Function Attrs: mustprogress uwtable
define linkonce_odr hidden void @_ZN5boost4json12basic_parserINS0_6detail7handlerEEC2IJNS0_11storage_ptrERPhRmEEERKNS0_13parse_optionsEDpOT_(ptr noundef nonnull align 8 dereferenceable(274) %0, ptr noundef nonnull align 8 dereferenceable(14) %1, ptr noundef nonnull align 8 dereferenceable(8) %2, ptr noundef nonnull align 8 dereferenceable(8) %3, ptr noundef nonnull align 8 dereferenceable(8) %4) unnamed_addr #5 comdat align 2 personality ptr @__gxx_personality_v0 {
  %6 = alloca ptr, align 8
  %7 = alloca ptr, align 8
  %8 = alloca ptr, align 8
  %9 = alloca ptr, align 8
  %10 = alloca ptr, align 8
  %11 = alloca ptr, align 8
  %12 = alloca i32, align 4
  store ptr %0, ptr %6, align 8, !tbaa !3
  store ptr %1, ptr %7, align 8, !tbaa !3
  store ptr %2, ptr %8, align 8, !tbaa !3
  store ptr %3, ptr %9, align 8, !tbaa !3
  store ptr %4, ptr %10, align 8, !tbaa !3
  %13 = load ptr, ptr %6, align 8
  %14 = getelementptr inbounds nuw %"class.boost::json::basic_parser", ptr %13, i32 0, i32 0
  %15 = load ptr, ptr %8, align 8, !tbaa !3
  %16 = load ptr, ptr %9, align 8, !tbaa !3
  %17 = load ptr, ptr %10, align 8, !tbaa !3
  call void @_ZN5boost4json6detail7handlerC2IJNS0_11storage_ptrERPhRmEEEDpOT_(ptr noundef nonnull align 8 dereferenceable(64) %14, ptr noundef nonnull align 8 dereferenceable(8) %15, ptr noundef nonnull align 8 dereferenceable(8) %16, ptr noundef nonnull align 8 dereferenceable(8) %17)
  %18 = getelementptr inbounds nuw %"class.boost::json::basic_parser", ptr %13, i32 0, i32 2
  call void @_ZN5boost6system10error_codeC2Ev(ptr noundef nonnull align 8 dereferenceable(24) %18) #10
  %19 = getelementptr inbounds nuw %"class.boost::json::basic_parser", ptr %13, i32 0, i32 3
  call void @_ZN5boost4json6detail5stackC2Ev(ptr noundef nonnull align 8 dereferenceable(48) %19) #10
  %20 = getelementptr inbounds nuw %"class.boost::json::basic_parser", ptr %13, i32 0, i32 8
  store i8 0, ptr %20, align 1, !tbaa !144
  %21 = getelementptr inbounds nuw %"class.boost::json::basic_parser", ptr %13, i32 0, i32 9
  store i8 1, ptr %21, align 2, !tbaa !156
  %22 = getelementptr inbounds nuw %"class.boost::json::basic_parser", ptr %13, i32 0, i32 12
  invoke void @_ZN5boost4json6detail10sbo_bufferILm34EEC2Ev(ptr noundef nonnull align 8 dereferenceable(56) %22)
          to label %23 unwind label %32

23:                                               ; preds = %5
  %24 = getelementptr inbounds nuw %"class.boost::json::basic_parser", ptr %13, i32 0, i32 13
  %25 = load ptr, ptr %7, align 8, !tbaa !3
  call void @llvm.memcpy.p0.p0.i64(ptr align 8 %24, ptr align 8 %25, i64 16, i1 false), !tbaa.struct !157
  %26 = getelementptr inbounds nuw %"class.boost::json::basic_parser", ptr %13, i32 0, i32 14
  %27 = getelementptr inbounds nuw %"class.boost::json::basic_parser", ptr %13, i32 0, i32 13
  %28 = getelementptr inbounds nuw %"struct.boost::json::parse_options", ptr %27, i32 0, i32 0
  %29 = load i64, ptr %28, align 8, !tbaa !160
  store i64 %29, ptr %26, align 8, !tbaa !161
  %30 = getelementptr inbounds nuw %"class.boost::json::basic_parser", ptr %13, i32 0, i32 15
  store i8 0, ptr %30, align 8, !tbaa !162
  %31 = getelementptr inbounds nuw %"class.boost::json::basic_parser", ptr %13, i32 0, i32 16
  store i8 0, ptr %31, align 1, !tbaa !163
  ret void

32:                                               ; preds = %5
  %33 = landingpad { ptr, i32 }
          cleanup
  %34 = extractvalue { ptr, i32 } %33, 0
  store ptr %34, ptr %11, align 8
  %35 = extractvalue { ptr, i32 } %33, 1
  store i32 %35, ptr %12, align 4
  call void @_ZN5boost4json6detail5stackD1Ev(ptr noundef nonnull align 8 dereferenceable(48) %19) #10
  call void @_ZN5boost4json6detail7handlerD2Ev(ptr noundef nonnull align 8 dereferenceable(64) %14) #10
  br label %36

36:                                               ; preds = %32
  %37 = load ptr, ptr %11, align 8
  %38 = load i32, ptr %12, align 4
  %39 = insertvalue { ptr, i32 } poison, ptr %37, 0
  %40 = insertvalue { ptr, i32 } %39, i32 %38, 1
  resume { ptr, i32 } %40
}

; Function Attrs: mustprogress nounwind uwtable
define void @_ZN5boost4json6parserC2ENS0_11storage_ptrERKNS0_13parse_optionsEPhm(ptr noundef nonnull align 8 dereferenceable(280) %0, ptr noundef %1, ptr noundef nonnull align 8 dereferenceable(14) %2, ptr noundef %3, i64 noundef %4) unnamed_addr #2 align 2 personality ptr @__gxx_personality_v0 {
  %6 = alloca ptr, align 8
  %7 = alloca ptr, align 8
  %8 = alloca ptr, align 8
  %9 = alloca ptr, align 8
  %10 = alloca i64, align 8
  %11 = alloca %"class.boost::json::storage_ptr", align 8
  store ptr %0, ptr %6, align 8, !tbaa !3
  store ptr %1, ptr %7, align 8, !tbaa !3
  store ptr %2, ptr %8, align 8, !tbaa !3
  store ptr %3, ptr %9, align 8, !tbaa !3
  store i64 %4, ptr %10, align 8, !tbaa !16
  %12 = load ptr, ptr %6, align 8
  %13 = getelementptr inbounds nuw %"class.boost::json::parser", ptr %12, i32 0, i32 0
  %14 = load ptr, ptr %8, align 8, !tbaa !3
  invoke void @_ZN5boost4json12basic_parserINS0_6detail7handlerEEC2IJNS0_11storage_ptrERPhRmEEERKNS0_13parse_optionsEDpOT_(ptr noundef nonnull align 8 dereferenceable(274) %13, ptr noundef nonnull align 8 dereferenceable(14) %14, ptr noundef nonnull align 8 dereferenceable(8) %1, ptr noundef nonnull align 8 dereferenceable(8) %9, ptr noundef nonnull align 8 dereferenceable(8) %10)
          to label %15 unwind label %16

15:                                               ; preds = %5
  call void @_ZN5boost4json11storage_ptrC2Ev(ptr noundef nonnull align 8 dereferenceable(8) %11) #10
  call void @_ZN5boost4json6parser5resetENS0_11storage_ptrE(ptr noundef nonnull align 8 dereferenceable(280) %12, ptr noundef %11) #10
  call void @_ZN5boost4json11storage_ptrD2Ev(ptr noundef nonnull align 8 dereferenceable(8) %11) #10
  ret void

16:                                               ; preds = %5
  %17 = landingpad { ptr, i32 }
          catch ptr null
  %18 = extractvalue { ptr, i32 } %17, 0
  call void @__clang_call_terminate(ptr %18) #34
  unreachable
}