; Function Attrs: mustprogress nounwind uwtable
define void @_ZN5boost4json6parserC2ENS0_11storage_ptrERKNS0_13parse_optionsEPhm(ptr noundef nonnull align 8 dereferenceable(280) %0, ptr nocapture noundef %1, ptr nocapture noundef nonnull readonly align 8 dereferenceable(14) %2, ptr noundef %3, i64 noundef %4) unnamed_addr #7 align 2 personality ptr @__gxx_personality_v0 {
  %6 = alloca %"class.boost::json::storage_ptr", align 8
  %7 = alloca %"class.boost::json::storage_ptr", align 8
  call void @llvm.lifetime.start.p0(i64 8, ptr nonnull %6)
  %8 = load i64, ptr %1, align 8, !tbaa !11
  store i64 0, ptr %1, align 8, !tbaa !11
  store i64 %8, ptr %6, align 8, !tbaa !17
  call void @_ZN5boost4json11value_stackC1ENS0_11storage_ptrEPhm(ptr noundef nonnull align 8 dereferenceable(274) %0, ptr noundef nonnull %6, ptr noundef %3, i64 noundef %4) #48
  %9 = load i64, ptr %6, align 8, !tbaa !17
  %10 = and i64 %9, 1
  %.not.i.i.i.i = icmp eq i64 %10, 0
  br i1 %.not.i.i.i.i, label %_ZN5boost4json11storage_ptrD2Ev.exit, label %11

11:                                               ; preds = %5
  %12 = and i64 %9, -4
  %13 = inttoptr i64 %12 to ptr
  %14 = getelementptr inbounds nuw i8, ptr %13, i64 8
  %15 = atomicrmw sub ptr %14, i64 1 acq_rel, align 8
  %16 = icmp ne i64 %15, 1
  %17 = icmp eq i64 %12, 0
  %or.cond.i.i.i.i = or i1 %17, %16
  br i1 %or.cond.i.i.i.i, label %_ZN5boost4json11storage_ptrD2Ev.exit, label %18

18:                                               ; preds = %11
  %19 = load ptr, ptr %13, align 8, !tbaa !19
  %20 = getelementptr inbounds i8, ptr %19, i64 8
  %21 = load ptr, ptr %20, align 8
  call void %21(ptr noundef nonnull align 8 dereferenceable(16) %13) #48
  br label %_ZN5boost4json11storage_ptrD2Ev.exit

_ZN5boost4json11storage_ptrD2Ev.exit:             ; preds = %5, %11, %18
  call void @llvm.lifetime.end.p0(i64 8, ptr nonnull %6)
  %22 = getelementptr inbounds nuw i8, ptr %0, i64 88
  %23 = getelementptr inbounds nuw i8, ptr %0, i64 177
  store i8 0, ptr %23, align 1, !tbaa !176
  %24 = getelementptr inbounds nuw i8, ptr %0, i64 178
  call void @llvm.memset.p0.i64(ptr noundef nonnull align 8 dereferenceable(72) %22, i8 0, i64 72, i1 false)
  store i8 1, ptr %24, align 2, !tbaa !177
  %25 = getelementptr inbounds nuw i8, ptr %0, i64 192
  call void @llvm.memset.p0.i64(ptr noundef nonnull align 8 dereferenceable(56) %25, i8 0, i64 34, i1 false)
  %26 = getelementptr inbounds nuw i8, ptr %0, i64 232
  store ptr %25, ptr %26, align 8, !tbaa !153
  %27 = getelementptr inbounds nuw i8, ptr %0, i64 240
  store i64 0, ptr %27, align 8, !tbaa !178
  %28 = getelementptr inbounds nuw i8, ptr %0, i64 248
  call void @llvm.memcpy.p0.p0.i64(ptr noundef nonnull align 8 dereferenceable(16) %28, ptr noundef nonnull align 8 dereferenceable(16) %2, i64 16, i1 false), !tbaa.struct !155
  %29 = getelementptr inbounds nuw i8, ptr %0, i64 264
  %30 = load i64, ptr %28, align 8, !tbaa !160
  store i64 %30, ptr %29, align 8, !tbaa !171
  %31 = getelementptr inbounds nuw i8, ptr %0, i64 272
  store i8 0, ptr %31, align 8, !tbaa !172
  %32 = getelementptr inbounds nuw i8, ptr %0, i64 273
  store i8 0, ptr %32, align 1, !tbaa !173
  store i64 0, ptr %7, align 8, !tbaa !17
  call void @_ZN5boost4json6parser5resetENS0_11storage_ptrE(ptr noundef nonnull align 8 dereferenceable(280) %0, ptr noundef nonnull %7) #48
  ret void
}